target datalayout = "e-m:e-p270:32:32-p271:32:32-p272:64:64-i64:64-i128:128-f80:128-n8:16:32:64-S128"
target triple = "x86_64-pc-linux-gnu"

@ilbc_gain = internal constant [3 x ptr] [ptr @gain5, ptr @gain4, ptr @gain3], align 16

; Function Attrs: nounwind uwtable
define internal signext i16 @gain_dequantization(i32 noundef %0, i32 noundef %1, i32 noundef %2) #1 {
  %4 = alloca i32, align 4
  %5 = alloca i32, align 4
  %6 = alloca i32, align 4
  %7 = alloca i16, align 2
  store i32 %0, ptr %4, align 4, !tbaa !42
  store i32 %1, ptr %5, align 4, !tbaa !42
  store i32 %2, ptr %6, align 4, !tbaa !42
  call void @llvm.lifetime.start.p0(i64 2, ptr %7) #8
  %8 = load i32, ptr %5, align 4, !tbaa !42
  %9 = icmp sge i32 %8, 0
  br i1 %9, label %10, label %12

10:                                               ; preds = %3
  %11 = load i32, ptr %5, align 4, !tbaa !42
  br label %15

12:                                               ; preds = %3
  %13 = load i32, ptr %5, align 4, !tbaa !42
  %14 = sub nsw i32 0, %13
  br label %15

15:                                               ; preds = %12, %10
  %16 = phi i32 [ %11, %10 ], [ %14, %12 ]
  %17 = icmp sgt i32 1638, %16
  br i1 %17, label %18, label %19

18:                                               ; preds = %15
  br label %29

19:                                               ; preds = %15
  %20 = load i32, ptr %5, align 4, !tbaa !42
  %21 = icmp sge i32 %20, 0
  br i1 %21, label %22, label %24

22:                                               ; preds = %19
  %23 = load i32, ptr %5, align 4, !tbaa !42
  br label %27

24:                                               ; preds = %19
  %25 = load i32, ptr %5, align 4, !tbaa !42
  %26 = sub nsw i32 0, %25
  br label %27

27:                                               ; preds = %24, %22
  %28 = phi i32 [ %23, %22 ], [ %26, %24 ]
  br label %29

29:                                               ; preds = %27, %18
  %30 = phi i32 [ 1638, %18 ], [ %28, %27 ]
  %31 = trunc i32 %30 to i16
  store i16 %31, ptr %7, align 2, !tbaa !68
  %32 = load i16, ptr %7, align 2, !tbaa !68
  %33 = sext i16 %32 to i32
  %34 = load i32, ptr %6, align 4, !tbaa !42
  %35 = sext i32 %34 to i64
  %36 = getelementptr inbounds [3 x ptr], ptr @ilbc_gain, i64 0, i64 %35
  %37 = load ptr, ptr %36, align 8, !tbaa !56
  %38 = load i32, ptr %4, align 4, !tbaa !42
  %39 = sext i32 %38 to i64
  %40 = getelementptr inbounds i16, ptr %37, i64 %39
  %41 = load i16, ptr %40, align 2, !tbaa !68
  %42 = sext i16 %41 to i32
  %43 = mul nsw i32 %33, %42
  %44 = add nsw i32 %43, 8192
  %45 = ashr i32 %44, 14
  %46 = trunc i32 %45 to i16
  call void @llvm.lifetime.end.p0(i64 2, ptr %7) #8
  ret i16 %46
}

; Function Attrs: nounwind uwtable
define internal void @construct_vector(ptr noundef %0, ptr noundef %1, ptr noundef %2, ptr noundef %3, i16 noundef signext %4, i16 noundef signext %5) #1 {
  %7 = alloca ptr, align 8
  %8 = alloca ptr, align 8
  %9 = alloca ptr, align 8
  %10 = alloca ptr, align 8
  %11 = alloca i16, align 2
  %12 = alloca i16, align 2
  %13 = alloca [3 x i16], align 2
  %14 = alloca [40 x i16], align 16
  %15 = alloca [40 x i16], align 16
  %16 = alloca [40 x i16], align 16
  %17 = alloca i32, align 4
  %18 = alloca ptr, align 8
  %19 = alloca i32, align 4
  store ptr %0, ptr %7, align 8, !tbaa !56
  store ptr %1, ptr %8, align 8, !tbaa !56
  store ptr %2, ptr %9, align 8, !tbaa !56
  store ptr %3, ptr %10, align 8, !tbaa !56
  store i16 %4, ptr %11, align 2, !tbaa !68
  store i16 %5, ptr %12, align 2, !tbaa !68
  call void @llvm.lifetime.start.p0(i64 6, ptr %13) #8
  call void @llvm.lifetime.start.p0(i64 80, ptr %14) #8
  call void @llvm.lifetime.start.p0(i64 80, ptr %15) #8
  call void @llvm.lifetime.start.p0(i64 80, ptr %16) #8
  call void @llvm.lifetime.start.p0(i64 4, ptr %17) #8
  call void @llvm.lifetime.start.p0(i64 8, ptr %18) #8
  call void @llvm.lifetime.start.p0(i64 4, ptr %19) #8
  %20 = load ptr, ptr %9, align 8, !tbaa !56
  %21 = getelementptr inbounds i16, ptr %20, i64 0
  %22 = load i16, ptr %21, align 2, !tbaa !68
  %23 = sext i16 %22 to i32
  %24 = call signext i16 @gain_dequantization(i32 noundef %23, i32 noundef 16384, i32 noundef 0)
  %25 = getelementptr inbounds [3 x i16], ptr %13, i64 0, i64 0
  store i16 %24, ptr %25, align 2, !tbaa !68
  %26 = load ptr, ptr %9, align 8, !tbaa !56
  %27 = getelementptr inbounds i16, ptr %26, i64 1
  %28 = load i16, ptr %27, align 2, !tbaa !68
  %29 = sext i16 %28 to i32
  %30 = getelementptr inbounds [3 x i16], ptr %13, i64 0, i64 0
  %31 = load i16, ptr %30, align 2, !tbaa !68
  %32 = sext i16 %31 to i32
  %33 = call signext i16 @gain_dequantization(i32 noundef %29, i32 noundef %32, i32 noundef 1)
  %34 = getelementptr inbounds [3 x i16], ptr %13, i64 0, i64 1
  store i16 %33, ptr %34, align 2, !tbaa !68
  %35 = load ptr, ptr %9, align 8, !tbaa !56
  %36 = getelementptr inbounds i16, ptr %35, i64 2
  %37 = load i16, ptr %36, align 2, !tbaa !68
  %38 = sext i16 %37 to i32
  %39 = getelementptr inbounds [3 x i16], ptr %13, i64 0, i64 1
  %40 = load i16, ptr %39, align 2, !tbaa !68
  %41 = sext i16 %40 to i32
  %42 = call signext i16 @gain_dequantization(i32 noundef %38, i32 noundef %41, i32 noundef 2)
  %43 = getelementptr inbounds [3 x i16], ptr %13, i64 0, i64 2
  store i16 %42, ptr %43, align 2, !tbaa !68
  %44 = getelementptr inbounds [40 x i16], ptr %14, i64 0, i64 0
  %45 = load ptr, ptr %10, align 8, !tbaa !56
  %46 = load ptr, ptr %8, align 8, !tbaa !56
  %47 = getelementptr inbounds i16, ptr %46, i64 0
  %48 = load i16, ptr %47, align 2, !tbaa !68
  %49 = load i16, ptr %11, align 2, !tbaa !68
  %50 = load i16, ptr %12, align 2, !tbaa !68
  call void @get_codebook(ptr noundef %44, ptr noundef %45, i16 noundef signext %48, i16 noundef signext %49, i16 noundef signext %50)
  %51 = getelementptr inbounds [40 x i16], ptr %15, i64 0, i64 0
  %52 = load ptr, ptr %10, align 8, !tbaa !56
  %53 = load ptr, ptr %8, align 8, !tbaa !56
  %54 = getelementptr inbounds i16, ptr %53, i64 1
  %55 = load i16, ptr %54, align 2, !tbaa !68
  %56 = load i16, ptr %11, align 2, !tbaa !68
  %57 = load i16, ptr %12, align 2, !tbaa !68
  call void @get_codebook(ptr noundef %51, ptr noundef %52, i16 noundef signext %55, i16 noundef signext %56, i16 noundef signext %57)
  %58 = getelementptr inbounds [40 x i16], ptr %16, i64 0, i64 0
  %59 = load ptr, ptr %10, align 8, !tbaa !56
  %60 = load ptr, ptr %8, align 8, !tbaa !56
  %61 = getelementptr inbounds i16, ptr %60, i64 2
  %62 = load i16, ptr %61, align 2, !tbaa !68
  %63 = load i16, ptr %11, align 2, !tbaa !68
  %64 = load i16, ptr %12, align 2, !tbaa !68
  call void @get_codebook(ptr noundef %58, ptr noundef %59, i16 noundef signext %62, i16 noundef signext %63, i16 noundef signext %64)
  %65 = getelementptr inbounds [3 x i16], ptr %13, i64 0, i64 0
  store ptr %65, ptr %18, align 8, !tbaa !56
  store i32 0, ptr %19, align 4, !tbaa !42
  br label %66

66:                                               ; preds = %115, %6
  %67 = load i32, ptr %19, align 4, !tbaa !42
  %68 = load i16, ptr %12, align 2, !tbaa !68
  %69 = sext i16 %68 to i32
  %70 = icmp slt i32 %67, %69
  br i1 %70, label %71, label %118

71:                                               ; preds = %66
  %72 = load ptr, ptr %18, align 8, !tbaa !56
  %73 = getelementptr inbounds nuw i16, ptr %72, i32 1
  store ptr %73, ptr %18, align 8, !tbaa !56
  %74 = load i16, ptr %72, align 2, !tbaa !68
  %75 = sext i16 %74 to i32
  %76 = load i32, ptr %19, align 4, !tbaa !42
  %77 = sext i32 %76 to i64
  %78 = getelementptr inbounds [40 x i16], ptr %14, i64 0, i64 %77
  %79 = load i16, ptr %78, align 2, !tbaa !68
  %80 = sext i16 %79 to i32
  %81 = mul nsw i32 %75, %80
  store i32 %81, ptr %17, align 4, !tbaa !42
  %82 = load ptr, ptr %18, align 8, !tbaa !56
  %83 = getelementptr inbounds nuw i16, ptr %82, i32 1
  store ptr %83, ptr %18, align 8, !tbaa !56
  %84 = load i16, ptr %82, align 2, !tbaa !68
  %85 = sext i16 %84 to i32
  %86 = load i32, ptr %19, align 4, !tbaa !42
  %87 = sext i32 %86 to i64
  %88 = getelementptr inbounds [40 x i16], ptr %15, i64 0, i64 %87
  %89 = load i16, ptr %88, align 2, !tbaa !68
  %90 = sext i16 %89 to i32
  %91 = mul nsw i32 %85, %90
  %92 = load i32, ptr %17, align 4, !tbaa !42
  %93 = add i32 %92, %91
  store i32 %93, ptr %17, align 4, !tbaa !42
  %94 = load ptr, ptr %18, align 8, !tbaa !56
  %95 = load i16, ptr %94, align 2, !tbaa !68
  %96 = sext i16 %95 to i32
  %97 = load i32, ptr %19, align 4, !tbaa !42
  %98 = sext i32 %97 to i64
  %99 = getelementptr inbounds [40 x i16], ptr %16, i64 0, i64 %98
  %100 = load i16, ptr %99, align 2, !tbaa !68
  %101 = sext i16 %100 to i32
  %102 = mul nsw i32 %96, %101
  %103 = load i32, ptr %17, align 4, !tbaa !42
  %104 = add i32 %103, %102
  store i32 %104, ptr %17, align 4, !tbaa !42
  %105 = load ptr, ptr %18, align 8, !tbaa !56
  %106 = getelementptr inbounds i16, ptr %105, i64 -2
  store ptr %106, ptr %18, align 8, !tbaa !56
  %107 = load i32, ptr %17, align 4, !tbaa !42
  %108 = add i32 %107, 8192
  %109 = ashr i32 %108, 14
  %110 = trunc i32 %109 to i16
  %111 = load ptr, ptr %7, align 8, !tbaa !56
  %112 = load i32, ptr %19, align 4, !tbaa !42
  %113 = sext i32 %112 to i64
  %114 = getelementptr inbounds i16, ptr %111, i64 %113
  store i16 %110, ptr %114, align 2, !tbaa !68
  br label %115

115:                                              ; preds = %71
  %116 = load i32, ptr %19, align 4, !tbaa !42
  %117 = add nsw i32 %116, 1
  store i32 %117, ptr %19, align 4, !tbaa !42
  br label %66, !llvm.loop !128

118:                                              ; preds = %66
  call void @llvm.lifetime.end.p0(i64 4, ptr %19) #8
  call void @llvm.lifetime.end.p0(i64 8, ptr %18) #8
  call void @llvm.lifetime.end.p0(i64 4, ptr %17) #8
  call void @llvm.lifetime.end.p0(i64 80, ptr %16) #8
  call void @llvm.lifetime.end.p0(i64 80, ptr %15) #8
  call void @llvm.lifetime.end.p0(i64 80, ptr %14) #8
  call void @llvm.lifetime.end.p0(i64 6, ptr %13) #8
  ret void
}