; Function Attrs: nofree norecurse nosync nounwind memory(argmem: readwrite) uwtable
define internal fastcc void @construct_vector(ptr noundef writeonly captures(none) %0, ptr noundef readonly captures(none) %1, ptr noundef readonly captures(none) %2, ptr noundef captures(none) %3, i16 noundef signext range(i16 85, 148) %4, i16 noundef signext %5) unnamed_addr #7 {
  %7 = alloca [40 x i16], align 16
  %8 = alloca [40 x i16], align 16
  %9 = alloca [40 x i16], align 16
  call void @llvm.lifetime.start.p0(i64 80, ptr nonnull %7) #9
  call void @llvm.lifetime.start.p0(i64 80, ptr nonnull %8) #9
  call void @llvm.lifetime.start.p0(i64 80, ptr nonnull %9) #9
  %10 = load i16, ptr %2, align 2, !tbaa !46
  %11 = sext i16 %10 to i64
  %12 = getelementptr inbounds i16, ptr @gain5, i64 %11
  %13 = load i16, ptr %12, align 2, !tbaa !46
  %14 = getelementptr inbounds nuw i8, ptr %2, i64 2
  %15 = load i16, ptr %14, align 2, !tbaa !46
  %16 = sext i16 %13 to i32
  %17 = tail call i32 @llvm.abs.i32(i32 range(i32 -32768, 32768) %16, i1 true)
  %18 = icmp samesign ult i32 %17, 1638
  %sext.i = shl nuw i32 %17, 16
  %19 = ashr exact i32 %sext.i, 16
  %20 = select i1 %18, i32 1638, i32 %19
  %21 = sext i16 %15 to i64
  %22 = getelementptr inbounds i16, ptr @gain4, i64 %21
  %23 = load i16, ptr %22, align 2, !tbaa !46
  %24 = sext i16 %23 to i32
  %25 = getelementptr inbounds nuw i8, ptr %2, i64 4
  %26 = load i16, ptr %25, align 2, !tbaa !46
  %27 = shl nsw i32 %24, 2
  %28 = mul i32 %27, %20
  %29 = add i32 %28, 32768
  %30 = ashr i32 %29, 16
  %31 = sext i16 %26 to i64
  %32 = getelementptr inbounds i16, ptr @gain3, i64 %31
  %33 = load i16, ptr %32, align 2, !tbaa !46
  %34 = load i16, ptr %1, align 2, !tbaa !46
  call fastcc void @get_codebook(ptr noundef %7, ptr noundef %3, i16 noundef signext %34, i16 noundef signext %4, i16 noundef signext %5)
  %35 = getelementptr inbounds nuw i8, ptr %1, i64 2
  %36 = load i16, ptr %35, align 2, !tbaa !46
  call fastcc void @get_codebook(ptr noundef %8, ptr noundef %3, i16 noundef signext %36, i16 noundef signext %4, i16 noundef signext %5)
  %37 = getelementptr inbounds nuw i8, ptr %1, i64 4
  %38 = load i16, ptr %37, align 2, !tbaa !46
  call fastcc void @get_codebook(ptr noundef %9, ptr noundef %3, i16 noundef signext %38, i16 noundef signext %4, i16 noundef signext %5)
  %39 = icmp sgt i16 %5, 0
  br i1 %39, label %.lr.ph, label %._crit_edge

.lr.ph:                                           ; preds = %6
  %wide.trip.count = zext nneg i16 %5 to i64
  %40 = sext i16 %33 to i32
  %41 = tail call i32 @llvm.abs.i32(i32 range(i32 -32768, 32768) %30, i1 true)
  %42 = icmp samesign ult i32 %41, 1638
  %sext.i30 = shl nuw i32 %41, 16
  %43 = ashr exact i32 %sext.i30, 16
  %44 = select i1 %42, i32 1638, i32 %43
  %factor.op.mul = mul nsw i32 %44, %40
  %.reass = shl i32 %factor.op.mul, 2
  %45 = add i32 %.reass, 32768
  %46 = ashr i32 %45, 16
  br label %47

47:                                               ; preds = %.lr.ph, %47
  %indvars.iv = phi i64 [ 0, %.lr.ph ], [ %indvars.iv.next, %47 ]
  %48 = getelementptr inbounds nuw [40 x i16], ptr %7, i64 0, i64 %indvars.iv
  %49 = load i16, ptr %48, align 2, !tbaa !46
  %50 = sext i16 %49 to i32
  %51 = mul nsw i32 %50, %16
  %52 = getelementptr inbounds nuw [40 x i16], ptr %8, i64 0, i64 %indvars.iv
  %53 = load i16, ptr %52, align 2, !tbaa !46
  %54 = sext i16 %53 to i32
  %55 = mul nsw i32 %30, %54
  %56 = getelementptr inbounds nuw [40 x i16], ptr %9, i64 0, i64 %indvars.iv
  %57 = load i16, ptr %56, align 2, !tbaa !46
  %58 = sext i16 %57 to i32
  %59 = mul nsw i32 %46, %58
  %60 = add nsw i32 %51, 8192
  %61 = add i32 %60, %55
  %62 = add i32 %61, %59
  %63 = lshr i32 %62, 14
  %64 = trunc i32 %63 to i16
  %65 = getelementptr inbounds nuw i16, ptr %0, i64 %indvars.iv
  store i16 %64, ptr %65, align 2, !tbaa !46
  %indvars.iv.next = add nuw nsw i64 %indvars.iv, 1
  %exitcond.not = icmp eq i64 %indvars.iv.next, %wide.trip.count
  br i1 %exitcond.not, label %._crit_edge, label %47, !llvm.loop !101

._crit_edge:                                      ; preds = %47, %6
  call void @llvm.lifetime.end.p0(i64 80, ptr nonnull %9) #9
  call void @llvm.lifetime.end.p0(i64 80, ptr nonnull %8) #9
  call void @llvm.lifetime.end.p0(i64 80, ptr nonnull %7) #9
  ret void
}